target datalayout = "e-m:e-p270:32:32-p271:32:32-p272:64:64-i64:64-i128:128-f80:128-n8:16:32:64-S128"
target triple = "x86_64-unknown-linux-gnu"

%"class.node::tracing::TracedValue" = type <{ %"class.v8::ConvertableToTraceFormat", %"class.std::__cxx11::basic_string", i8, i8, [6 x i8] }>
%"class.v8::ConvertableToTraceFormat" = type { ptr }
%"class.std::__cxx11::basic_string" = type { %"struct.std::__cxx11::basic_string<char>::_Alloc_hider", i64, %union.anon }
%"struct.std::__cxx11::basic_string<char>::_Alloc_hider" = type { ptr }
%union.anon = type { i64, [8 x i8] }

; Function Attrs: mustprogress nounwind uwtable
define dso_local void @_ZNK4node7tracing11TracedValue19AppendAsTraceFormatEPNSt7__cxx1112basic_stringIcSt11char_traitsIcESaIcEEE(ptr noundef nonnull align 8 dereferenceable(42) %this, ptr noundef %out) unnamed_addr #0 align 2 {
entry:
  %this.addr = alloca ptr, align 8
  %out.addr = alloca ptr, align 8
  store ptr %this, ptr %this.addr, align 8
  store ptr %out, ptr %out.addr, align 8
  %this1 = load ptr, ptr %this.addr, align 8
  %root_is_array_ = getelementptr inbounds %"class.node::tracing::TracedValue", ptr %this1, i32 0, i32 3
  %0 = load i8, ptr %root_is_array_, align 1
  %tobool = trunc i8 %0 to i1
  %cond = select i1 %tobool, i8 91, i8 123
  %1 = load ptr, ptr %out.addr, align 8
  %call = call noundef nonnull align 8 dereferenceable(32) ptr @_ZNSt7__cxx1112basic_stringIcSt11char_traitsIcESaIcEEpLEc(ptr noundef nonnull align 8 dereferenceable(32) %1, i8 noundef signext %cond)
  %data_ = getelementptr inbounds %"class.node::tracing::TracedValue", ptr %this1, i32 0, i32 1
  %2 = load ptr, ptr %out.addr, align 8
  %call2 = call noundef nonnull align 8 dereferenceable(32) ptr @_ZNSt7__cxx1112basic_stringIcSt11char_traitsIcESaIcEEpLERKS4_(ptr noundef nonnull align 8 dereferenceable(32) %2, ptr noundef nonnull align 8 dereferenceable(32) %data_)
  %root_is_array_3 = getelementptr inbounds %"class.node::tracing::TracedValue", ptr %this1, i32 0, i32 3
  %3 = load i8, ptr %root_is_array_3, align 1
  %tobool4 = trunc i8 %3 to i1
  %cond5 = select i1 %tobool4, i8 93, i8 125
  %4 = load ptr, ptr %out.addr, align 8
  %call6 = call noundef nonnull align 8 dereferenceable(32) ptr @_ZNSt7__cxx1112basic_stringIcSt11char_traitsIcESaIcEEpLEc(ptr noundef nonnull align 8 dereferenceable(32) %4, i8 noundef signext %cond5)
  ret void
}