; Function Attrs: mustprogress nounwind uwtable
define dso_local void @_ZNK4node7tracing11TracedValue19AppendAsTraceFormatEPNSt7__cxx1112basic_stringIcSt11char_traitsIcESaIcEEE(ptr noundef nonnull align 8 dereferenceable(42) %this, ptr noundef nonnull %out) unnamed_addr #0 align 2 {
entry:
  %root_is_array_ = getelementptr inbounds i8, ptr %this, i64 41
  %0 = load i8, ptr %root_is_array_, align 1
  %1 = and i8 %0, 1
  %tobool.not = icmp eq i8 %1, 0
  %cond = select i1 %tobool.not, i8 123, i8 91
  %call = tail call noundef nonnull align 8 dereferenceable(32) ptr @_ZNSt7__cxx1112basic_stringIcSt11char_traitsIcESaIcEEpLEc(ptr noundef nonnull align 8 dereferenceable(32) %out, i8 noundef signext %cond) #10
  %data_ = getelementptr inbounds i8, ptr %this, i64 8
  %call2 = tail call noundef nonnull align 8 dereferenceable(32) ptr @_ZNSt7__cxx1112basic_stringIcSt11char_traitsIcESaIcEEpLERKS4_(ptr noundef nonnull align 8 dereferenceable(32) %out, ptr noundef nonnull align 8 dereferenceable(32) %data_) #10
  %2 = load i8, ptr %root_is_array_, align 1
  %3 = and i8 %2, 1
  %tobool4.not = icmp eq i8 %3, 0
  %cond5 = select i1 %tobool4.not, i8 125, i8 93
  %call6 = tail call noundef nonnull align 8 dereferenceable(32) ptr @_ZNSt7__cxx1112basic_stringIcSt11char_traitsIcESaIcEEpLEc(ptr noundef nonnull align 8 dereferenceable(32) %out, i8 noundef signext %cond5) #10
  ret void
}